target datalayout = "e-m:e-p270:32:32-p271:32:32-p272:64:64-i64:64-i128:128-f80:128-n8:16:32:64-S128"
target triple = "x86_64-pc-linux-gnu"

%struct.reassembly_table = type { ptr, ptr, ptr, ptr, ptr }
%struct._fragment_head = type { ptr, ptr, i32, i32, i32, i32, i32, i32, i32, i8, i32, ptr, ptr }

; Function Attrs: null_pointer_is_valid sspstrong uwtable
define internal ptr @lookup_fd_head(ptr noundef %0, ptr noundef %1, i32 noundef %2, ptr noundef %3, ptr noundef %4) #1 {
  %6 = alloca ptr, align 8
  %7 = alloca ptr, align 8
  %8 = alloca i32, align 4
  %9 = alloca ptr, align 8
  %10 = alloca ptr, align 8
  %11 = alloca ptr, align 8
  %12 = alloca ptr, align 8
  store ptr %0, ptr %6, align 8
  store ptr %1, ptr %7, align 8
  store i32 %2, ptr %8, align 4
  store ptr %3, ptr %9, align 8
  store ptr %4, ptr %10, align 8
  call void @llvm.lifetime.start.p0(i64 8, ptr %11) #16
  call void @llvm.lifetime.start.p0(i64 8, ptr %12) #16
  %13 = load ptr, ptr %6, align 8
  %14 = getelementptr inbounds nuw %struct.reassembly_table, ptr %13, i32 0, i32 2
  %15 = load ptr, ptr %14, align 8
  %16 = load ptr, ptr %7, align 8
  %17 = load i32, ptr %8, align 4
  %18 = load ptr, ptr %9, align 8
  %19 = call ptr %15(ptr noundef %16, i32 noundef %17, ptr noundef %18)
  store ptr %19, ptr %11, align 8
  %20 = load ptr, ptr %6, align 8
  %21 = getelementptr inbounds nuw %struct.reassembly_table, ptr %20, i32 0, i32 0
  %22 = load ptr, ptr %21, align 8
  %23 = load ptr, ptr %11, align 8
  %24 = load ptr, ptr %10, align 8
  %25 = call i32 @g_hash_table_lookup_extended(ptr noundef %22, ptr noundef %23, ptr noundef %24, ptr noundef %12)
  %26 = icmp ne i32 %25, 0
  br i1 %26, label %28, label %27

27:                                               ; preds = %5
  store ptr null, ptr %12, align 8
  br label %28

28:                                               ; preds = %27, %5
  %29 = load ptr, ptr %6, align 8
  %30 = getelementptr inbounds nuw %struct.reassembly_table, ptr %29, i32 0, i32 4
  %31 = load ptr, ptr %30, align 8
  %32 = load ptr, ptr %11, align 8
  call void %31(ptr noundef %32)
  %33 = load ptr, ptr %12, align 8
  call void @llvm.lifetime.end.p0(i64 8, ptr %12) #16
  call void @llvm.lifetime.end.p0(i64 8, ptr %11) #16
  ret ptr %33
}

; Function Attrs: null_pointer_is_valid sspstrong uwtable
define void @fragment_set_partial_reassembly(ptr noundef %0, ptr noundef %1, i32 noundef %2, ptr noundef %3) #1 {
  %5 = alloca ptr, align 8
  %6 = alloca ptr, align 8
  %7 = alloca i32, align 4
  %8 = alloca ptr, align 8
  %9 = alloca ptr, align 8
  store ptr %0, ptr %5, align 8
  store ptr %1, ptr %6, align 8
  store i32 %2, ptr %7, align 4
  store ptr %3, ptr %8, align 8
  call void @llvm.lifetime.start.p0(i64 8, ptr %9) #16
  %10 = load ptr, ptr %5, align 8
  %11 = load ptr, ptr %6, align 8
  %12 = load i32, ptr %7, align 4
  %13 = load ptr, ptr %8, align 8
  %14 = call ptr @lookup_fd_head(ptr noundef %10, ptr noundef %11, i32 noundef %12, ptr noundef %13, ptr noundef null)
  store ptr %14, ptr %9, align 8
  %15 = load ptr, ptr %9, align 8
  %16 = icmp ne ptr %15, null
  br i1 %16, label %17, label %22

17:                                               ; preds = %4
  %18 = load ptr, ptr %9, align 8
  %19 = getelementptr inbounds nuw %struct._fragment_head, ptr %18, i32 0, i32 10
  %20 = load i32, ptr %19, align 8
  %21 = or i32 %20, 64
  store i32 %21, ptr %19, align 8
  br label %22

22:                                               ; preds = %17, %4
  call void @llvm.lifetime.end.p0(i64 8, ptr %9) #16
  ret void
}